; Function Attrs: nounwind uwtable
define hidden ptr @je_arena_choose_huge(ptr noundef %0) local_unnamed_addr #0 {
  %2 = load i32, ptr @huge_arena_ind, align 4, !tbaa !4
  %3 = zext i32 %2 to i64
  %4 = getelementptr inbounds nuw [0 x %struct.atomic_p_t], ptr @je_arenas, i64 0, i64 %3
  %5 = load atomic i64, ptr %4 acquire, align 8
  %.0.i.i = inttoptr i64 %5 to ptr
  %6 = icmp eq i64 %5, 0
  br i1 %6, label %arena_get.exit.thread, label %31, !prof !168

arena_get.exit.thread:                            ; preds = %1
  %7 = load i32, ptr @huge_arena_ind, align 4, !tbaa !4
  %8 = zext i32 %7 to i64
  %9 = getelementptr inbounds nuw [0 x %struct.atomic_p_t], ptr @je_arenas, i64 0, i64 %8
  %10 = load atomic i64, ptr %9 acquire, align 8
  %.0.i.i13 = inttoptr i64 %10 to ptr
  %11 = icmp eq i64 %10, 0
  br i1 %11, label %12, label %arena_get.exit15, !prof !142

12:                                               ; preds = %arena_get.exit.thread
  %13 = tail call ptr @je_arena_init(ptr noundef %0, i32 noundef %7, ptr noundef nonnull @je_arena_config_default) #16
  br label %arena_get.exit15

arena_get.exit15:                                 ; preds = %arena_get.exit.thread, %12
  %.0.i14 = phi ptr [ %13, %12 ], [ %.0.i.i13, %arena_get.exit.thread ]
  %14 = icmp eq ptr %.0.i14, null
  br i1 %14, label %31, label %15

15:                                               ; preds = %arena_get.exit15
  %16 = load atomic i64, ptr @dirty_decay_ms_default.0 monotonic, align 8
  %17 = icmp sgt i64 %16, 0
  br i1 %17, label %18, label %23

18:                                               ; preds = %15
  %19 = load atomic i8, ptr @je_background_thread_enabled_state monotonic, align 1
  %20 = trunc i8 %19 to i1
  %..i.i = select i1 %20, i32 1, i32 2
  %21 = getelementptr inbounds nuw i8, ptr %.0.i14, i64 10648
  %22 = tail call zeroext i1 @je_pa_decay_ms_set(ptr noundef %0, ptr noundef nonnull %21, i32 noundef 1, i64 noundef 0, i32 noundef %..i.i) #16
  br label %23

23:                                               ; preds = %18, %15
  %24 = load atomic i64, ptr @muzzy_decay_ms_default.0 monotonic, align 8
  %25 = icmp sgt i64 %24, 0
  br i1 %25, label %26, label %31

26:                                               ; preds = %23
  %27 = load atomic i8, ptr @je_background_thread_enabled_state monotonic, align 1
  %28 = trunc i8 %27 to i1
  %..i.i16 = select i1 %28, i32 1, i32 2
  %29 = getelementptr inbounds nuw i8, ptr %.0.i14, i64 10648
  %30 = tail call zeroext i1 @je_pa_decay_ms_set(ptr noundef %0, ptr noundef nonnull %29, i32 noundef 2, i64 noundef 0, i32 noundef %..i.i16) #16
  br label %31

31:                                               ; preds = %1, %26, %23, %arena_get.exit15
  %.010 = phi ptr [ null, %arena_get.exit15 ], [ %.0.i14, %26 ], [ %.0.i14, %23 ], [ %.0.i.i, %1 ]
  ret ptr %.010
}